target datalayout = "e-m:e-p270:32:32-p271:32:32-p272:64:64-i64:64-i128:128-f80:128-n8:16:32:64-S128"
target triple = "x86_64-pc-linux-gnu"

%struct.FunctionCallInfoBaseData = type { ptr, ptr, ptr, i32, i8, i16, [0 x %struct.NullableDatum] }
%struct.NullableDatum = type { i64, i8 }
%struct.Node = type { i32 }
%struct.SupportRequestWFuncMonotonic = type { i32, ptr, ptr, i32 }
%struct.SupportRequestOptimizeWindowClause = type { i32, ptr, ptr, i32 }

; Function Attrs: inlinehint nounwind uwtable
define internal i64 @PointerGetDatum(ptr noundef %0) #3 {
  %2 = alloca ptr, align 8
  store ptr %0, ptr %2, align 8
  %3 = load ptr, ptr %2, align 8
  %4 = ptrtoint ptr %3 to i64
  ret i64 %4
}

; Function Attrs: inlinehint nounwind uwtable
define internal ptr @DatumGetPointer(i64 noundef %0) #3 {
  %2 = alloca i64, align 8
  store i64 %0, ptr %2, align 8
  %3 = load i64, ptr %2, align 8
  %4 = inttoptr i64 %3 to ptr
  ret ptr %4
}

; Function Attrs: nounwind uwtable
define dso_local i64 @window_dense_rank_support(ptr noundef %0) #0 {
  %2 = alloca i64, align 8
  %3 = alloca ptr, align 8
  %4 = alloca ptr, align 8
  %5 = alloca ptr, align 8
  %6 = alloca i32, align 4
  %7 = alloca ptr, align 8
  store ptr %0, ptr %3, align 8
  call void @llvm.lifetime.start.p0(i64 8, ptr %4) #5
  %8 = load ptr, ptr %3, align 8
  %9 = getelementptr inbounds nuw %struct.FunctionCallInfoBaseData, ptr %8, i32 0, i32 6
  %10 = getelementptr inbounds [0 x %struct.NullableDatum], ptr %9, i64 0, i64 0
  %11 = getelementptr inbounds nuw %struct.NullableDatum, ptr %10, i32 0, i32 0
  %12 = load i64, ptr %11, align 8
  %13 = call ptr @DatumGetPointer(i64 noundef %12)
  store ptr %13, ptr %4, align 8
  %14 = load ptr, ptr %4, align 8
  %15 = getelementptr inbounds nuw %struct.Node, ptr %14, i32 0, i32 0
  %16 = load i32, ptr %15, align 4
  %17 = icmp eq i32 %16, 461
  br i1 %17, label %18, label %24

18:                                               ; preds = %1
  call void @llvm.lifetime.start.p0(i64 8, ptr %5) #5
  %19 = load ptr, ptr %4, align 8
  store ptr %19, ptr %5, align 8
  %20 = load ptr, ptr %5, align 8
  %21 = getelementptr inbounds nuw %struct.SupportRequestWFuncMonotonic, ptr %20, i32 0, i32 3
  store i32 1, ptr %21, align 8
  %22 = load ptr, ptr %5, align 8
  %23 = call i64 @PointerGetDatum(ptr noundef %22)
  store i64 %23, ptr %2, align 8
  store i32 1, ptr %6, align 4
  call void @llvm.lifetime.end.p0(i64 8, ptr %5) #5
  br label %37

24:                                               ; preds = %1
  %25 = load ptr, ptr %4, align 8
  %26 = getelementptr inbounds nuw %struct.Node, ptr %25, i32 0, i32 0
  %27 = load i32, ptr %26, align 4
  %28 = icmp eq i32 %27, 462
  br i1 %28, label %29, label %35

29:                                               ; preds = %24
  call void @llvm.lifetime.start.p0(i64 8, ptr %7) #5
  %30 = load ptr, ptr %4, align 8
  store ptr %30, ptr %7, align 8
  %31 = load ptr, ptr %7, align 8
  %32 = getelementptr inbounds nuw %struct.SupportRequestOptimizeWindowClause, ptr %31, i32 0, i32 3
  store i32 1061, ptr %32, align 8
  %33 = load ptr, ptr %7, align 8
  %34 = call i64 @PointerGetDatum(ptr noundef %33)
  store i64 %34, ptr %2, align 8
  store i32 1, ptr %6, align 4
  call void @llvm.lifetime.end.p0(i64 8, ptr %7) #5
  br label %37

35:                                               ; preds = %24
  %36 = call i64 @PointerGetDatum(ptr noundef null)
  store i64 %36, ptr %2, align 8
  store i32 1, ptr %6, align 4
  br label %37

37:                                               ; preds = %35, %29, %18
  call void @llvm.lifetime.end.p0(i64 8, ptr %4) #5
  %38 = load i64, ptr %2, align 8
  ret i64 %38
}